; Function Attrs: mustprogress uwtable
define i32 @uprv_compareGoldenFiles(ptr noundef %0, i32 noundef %1, ptr noundef %2, i1 noundef zeroext %3) local_unnamed_addr #8 personality ptr @__gxx_personality_v0 {
  %5 = alloca %"class.std::basic_ofstream", align 8
  %6 = alloca %"class.std::basic_ifstream", align 8
  %7 = alloca i8, align 1
  br i1 %3, label %8, label %34

8:                                                ; preds = %4
  call void @llvm.lifetime.start.p0(i64 512, ptr nonnull %5) #23
  call void @_ZNSt14basic_ofstreamIcSt11char_traitsIcEEC1Ev(ptr noundef nonnull align 8 dereferenceable(248) %5)
  %9 = getelementptr inbounds nuw i8, ptr %5, i64 8
  %10 = invoke noundef ptr @_ZNSt13basic_filebufIcSt11char_traitsIcEE4openEPKcSt13_Ios_Openmode(ptr noundef nonnull align 8 dereferenceable(240) %9, ptr noundef %2, i32 noundef 16)
          to label %.noexc unwind label %32

.noexc:                                           ; preds = %8
  %.not.i = icmp eq ptr %10, null
  %11 = load ptr, ptr %5, align 8, !tbaa !3
  %12 = getelementptr i8, ptr %11, i64 -24
  %13 = load i64, ptr %12, align 8
  %14 = getelementptr inbounds i8, ptr %5, i64 %13
  br i1 %.not.i, label %15, label %19

15:                                               ; preds = %.noexc
  %16 = getelementptr inbounds nuw i8, ptr %14, i64 32
  %17 = load i32, ptr %16, align 8, !tbaa !26
  %18 = or i32 %17, 4
  br label %19

19:                                               ; preds = %15, %.noexc
  %.sink.i = phi i32 [ %18, %15 ], [ 0, %.noexc ]
  invoke void @_ZNSt9basic_iosIcSt11char_traitsIcEE5clearESt12_Ios_Iostate(ptr noundef nonnull align 8 dereferenceable(264) %14, i32 noundef %.sink.i)
          to label %_ZNSt14basic_ofstreamIcSt11char_traitsIcEE4openEPKcSt13_Ios_Openmode.exit unwind label %32

_ZNSt14basic_ofstreamIcSt11char_traitsIcEE4openEPKcSt13_Ios_Openmode.exit: ; preds = %19
  %20 = sext i32 %1 to i64
  %21 = invoke noundef nonnull align 8 dereferenceable(8) ptr @_ZNSo5writeEPKcl(ptr noundef nonnull align 8 dereferenceable(8) %5, ptr noundef %0, i64 noundef %20)
          to label %22 unwind label %32

22:                                               ; preds = %_ZNSt14basic_ofstreamIcSt11char_traitsIcEE4openEPKcSt13_Ios_Openmode.exit
  %23 = invoke noundef ptr @_ZNSt13basic_filebufIcSt11char_traitsIcEE5closeEv(ptr noundef nonnull align 8 dereferenceable(240) %9)
          to label %.noexc21 unwind label %32

.noexc21:                                         ; preds = %22
  %.not.i20 = icmp eq ptr %23, null
  br i1 %.not.i20, label %24, label %_ZNSt14basic_ofstreamIcSt11char_traitsIcEE5closeEv.exit

24:                                               ; preds = %.noexc21
  %25 = load ptr, ptr %5, align 8, !tbaa !3
  %26 = getelementptr i8, ptr %25, i64 -24
  %27 = load i64, ptr %26, align 8
  %28 = getelementptr inbounds i8, ptr %5, i64 %27
  %29 = getelementptr inbounds nuw i8, ptr %28, i64 32
  %30 = load i32, ptr %29, align 8, !tbaa !26
  %31 = or i32 %30, 4
  invoke void @_ZNSt9basic_iosIcSt11char_traitsIcEE5clearESt12_Ios_Iostate(ptr noundef nonnull align 8 dereferenceable(264) %28, i32 noundef %31)
          to label %_ZNSt14basic_ofstreamIcSt11char_traitsIcEE5closeEv.exit unwind label %32

_ZNSt14basic_ofstreamIcSt11char_traitsIcEE5closeEv.exit: ; preds = %.noexc21, %24
  call void @_ZNSt14basic_ofstreamIcSt11char_traitsIcEED1Ev(ptr noundef nonnull align 8 dereferenceable(248) %5) #23
  call void @llvm.lifetime.end.p0(i64 512, ptr nonnull %5) #23
  br label %76

32:                                               ; preds = %24, %22, %19, %8, %_ZNSt14basic_ofstreamIcSt11char_traitsIcEE4openEPKcSt13_Ios_Openmode.exit
  %33 = landingpad { ptr, i32 }
          cleanup
  call void @_ZNSt14basic_ofstreamIcSt11char_traitsIcEED1Ev(ptr noundef nonnull align 8 dereferenceable(248) %5) #23
  call void @llvm.lifetime.end.p0(i64 512, ptr nonnull %5) #23
  br label %77

34:                                               ; preds = %4
  call void @llvm.lifetime.start.p0(i64 520, ptr nonnull %6) #23
  call void @_ZNSt14basic_ifstreamIcSt11char_traitsIcEEC1EPKcSt13_Ios_Openmode(ptr noundef nonnull align 8 dereferenceable(256) %6, ptr noundef %2, i32 noundef 8)
  call void @llvm.lifetime.start.p0(i64 1, ptr nonnull %7) #23
  %35 = sext i32 %1 to i64
  br label %36

36:                                               ; preds = %53, %34
  %indvars.iv = phi i64 [ %indvars.iv.next, %53 ], [ 0, %34 ]
  %37 = invoke noundef nonnull align 8 dereferenceable(16) ptr @_ZNSi3getERc(ptr noundef nonnull align 8 dereferenceable(16) %6, ptr noundef nonnull align 1 dereferenceable(1) %7)
          to label %38 unwind label %.loopexit

38:                                               ; preds = %36
  %39 = load ptr, ptr %37, align 8, !tbaa !3
  %40 = getelementptr i8, ptr %39, i64 -24
  %41 = load i64, ptr %40, align 8
  %42 = getelementptr inbounds i8, ptr %37, i64 %41
  %43 = getelementptr inbounds nuw i8, ptr %42, i64 32
  %44 = load i32, ptr %43, align 8, !tbaa !26
  %45 = and i32 %44, 5
  %.not.i23 = icmp eq i32 %45, 0
  %46 = icmp slt i64 %indvars.iv, %35
  %47 = select i1 %.not.i23, i1 %46, i1 false
  br i1 %47, label %48, label %54

48:                                               ; preds = %38
  %49 = load i8, ptr %7, align 1, !tbaa !25
  %50 = getelementptr inbounds nuw i8, ptr %0, i64 %indvars.iv
  %51 = load i8, ptr %50, align 1, !tbaa !25
  %.not = icmp eq i8 %49, %51
  br i1 %.not, label %53, label %54

.loopexit:                                        ; preds = %36
  %lpad.loopexit = landingpad { ptr, i32 }
          cleanup
  br label %52

.loopexit.split-lp:                               ; preds = %65, %68
  %lpad.loopexit.split-lp = landingpad { ptr, i32 }
          cleanup
  br label %52

52:                                               ; preds = %.loopexit.split-lp, %.loopexit
  %lpad.phi = phi { ptr, i32 } [ %lpad.loopexit, %.loopexit ], [ %lpad.loopexit.split-lp, %.loopexit.split-lp ]
  call void @llvm.lifetime.end.p0(i64 1, ptr nonnull %7) #23
  call void @_ZNSt14basic_ifstreamIcSt11char_traitsIcEED1Ev(ptr noundef nonnull align 8 dereferenceable(256) %6) #23
  call void @llvm.lifetime.end.p0(i64 520, ptr nonnull %6) #23
  br label %77

53:                                               ; preds = %48
  %indvars.iv.next = add nuw nsw i64 %indvars.iv, 1
  br label %36, !llvm.loop !35

54:                                               ; preds = %48, %38
  %55 = trunc nuw nsw i64 %indvars.iv to i32
  %56 = icmp eq i32 %1, %55
  br i1 %56, label %57, label %65

57:                                               ; preds = %54
  %58 = load ptr, ptr %6, align 8, !tbaa !3
  %59 = getelementptr i8, ptr %58, i64 -24
  %60 = load i64, ptr %59, align 8
  %61 = getelementptr inbounds i8, ptr %6, i64 %60
  %62 = getelementptr inbounds nuw i8, ptr %61, i64 32
  %63 = load i32, ptr %62, align 8, !tbaa !26
  %64 = and i32 %63, 2
  %.not27 = icmp eq i32 %64, 0
  %spec.select = select i1 %.not27, i32 %1, i32 -1
  br label %65

65:                                               ; preds = %57, %54
  %.1 = phi i32 [ %55, %54 ], [ %spec.select, %57 ]
  %66 = getelementptr inbounds nuw i8, ptr %6, i64 16
  %67 = invoke noundef ptr @_ZNSt13basic_filebufIcSt11char_traitsIcEE5closeEv(ptr noundef nonnull align 8 dereferenceable(240) %66)
          to label %.noexc25 unwind label %.loopexit.split-lp

.noexc25:                                         ; preds = %65
  %.not.i24 = icmp eq ptr %67, null
  br i1 %.not.i24, label %68, label %_ZNSt14basic_ifstreamIcSt11char_traitsIcEE5closeEv.exit

68:                                               ; preds = %.noexc25
  %69 = load ptr, ptr %6, align 8, !tbaa !3
  %70 = getelementptr i8, ptr %69, i64 -24
  %71 = load i64, ptr %70, align 8
  %72 = getelementptr inbounds i8, ptr %6, i64 %71
  %73 = getelementptr inbounds nuw i8, ptr %72, i64 32
  %74 = load i32, ptr %73, align 8, !tbaa !26
  %75 = or i32 %74, 4
  invoke void @_ZNSt9basic_iosIcSt11char_traitsIcEE5clearESt12_Ios_Iostate(ptr noundef nonnull align 8 dereferenceable(264) %72, i32 noundef %75)
          to label %_ZNSt14basic_ifstreamIcSt11char_traitsIcEE5closeEv.exit unwind label %.loopexit.split-lp

_ZNSt14basic_ifstreamIcSt11char_traitsIcEE5closeEv.exit: ; preds = %.noexc25, %68
  call void @llvm.lifetime.end.p0(i64 1, ptr nonnull %7) #23
  call void @_ZNSt14basic_ifstreamIcSt11char_traitsIcEED1Ev(ptr noundef nonnull align 8 dereferenceable(256) %6) #23
  call void @llvm.lifetime.end.p0(i64 520, ptr nonnull %6) #23
  br label %76

76:                                               ; preds = %_ZNSt14basic_ifstreamIcSt11char_traitsIcEE5closeEv.exit, %_ZNSt14basic_ofstreamIcSt11char_traitsIcEE5closeEv.exit
  %.017 = phi i32 [ -1, %_ZNSt14basic_ofstreamIcSt11char_traitsIcEE5closeEv.exit ], [ %.1, %_ZNSt14basic_ifstreamIcSt11char_traitsIcEE5closeEv.exit ]
  ret i32 %.017

77:                                               ; preds = %52, %32
  %.pn = phi { ptr, i32 } [ %33, %32 ], [ %lpad.phi, %52 ]
  resume { ptr, i32 } %.pn
}